target datalayout = "e-m:e-p270:32:32-p271:32:32-p272:64:64-i64:64-i128:128-f80:128-n8:16:32:64-S128"
target triple = "x86_64-pc-linux-gnu"

%class.anon = type { i8 }

@.str = private unnamed_addr constant [18 x i8] c"GMX_GPU_CUDA != 0\00", align 1
@.str.1 = private unnamed_addr constant [34 x i8] c"Can only be called in CUDA builds\00", align 1
@"__PRETTY_FUNCTION__._ZZN3gmx8internal35disableCudaEventConsumptionCountingEvENK3$_0clEv" = private unnamed_addr constant [97 x i8] c"auto gmx::internal::disableCudaEventConsumptionCounting()::(anonymous class)::operator()() const\00", align 1
@.str.2 = private unnamed_addr constant [148 x i8] c"generated/home/dtcxzyw/WorkSpace/Projects/compilers/llvm-opt-benchmark/bench/gromacs/gromacs/src/gromacs/gpu_utils/gpueventsynchronizer_helpers.cpp\00", align 1

; Function Attrs: mustprogress uwtable
define void @_ZN3gmx8internal35disableCudaEventConsumptionCountingEv() #0 {
  %1 = alloca %class.anon, align 1
  call void @"_ZZN3gmx8internal35disableCudaEventConsumptionCountingEvENK3$_0clEv"(ptr noundef nonnull align 1 dereferenceable(1) %1)
  ret void
}

; Function Attrs: mustprogress uwtable
define internal void @"_ZZN3gmx8internal35disableCudaEventConsumptionCountingEvENK3$_0clEv"(ptr noundef nonnull align 1 dereferenceable(1) %0) #0 align 2 {
  %2 = alloca ptr, align 8
  store ptr %0, ptr %2, align 8
  call void @_ZN3gmx8internal13assertHandlerEPKcS2_S2_S2_i(ptr noundef @.str, ptr noundef @.str.1, ptr noundef @"__PRETTY_FUNCTION__._ZZN3gmx8internal35disableCudaEventConsumptionCountingEvENK3$_0clEv", ptr noundef @.str.2, i32 noundef 63) #2
  unreachable
}

; Function Attrs: noreturn
declare void @_ZN3gmx8internal13assertHandlerEPKcS2_S2_S2_i(ptr noundef, ptr noundef, ptr noundef, ptr noundef, i32 noundef) #1


!llvm.module.flags = !{!0, !1, !2, !3, !4}

!0 = !{i32 1, !"wchar_size", i32 4}
!1 = !{i32 7, !"openmp", i32 51}
!2 = !{i32 8, !"PIC Level", i32 2}
!3 = !{i32 7, !"uwtable", i32 2}
!4 = !{i32 7, !"frame-pointer", i32 2}
